Certificate:
    Data:
        Version: 1 (0x0)
        Serial Number: 2 (0x2)
        Signature Algorithm: sha512WithRSAEncryption
        Issuer: C=US, ST=CA, O=Open vSwitch, OU=controllerca, CN=OVS controllerca CA Certificate (2022 lip 15 12:33:44)
        Validity
            Not Before: Jul 15 10:33:44 2022 GMT
            Not After : Jul 12 10:33:44 2032 GMT
        Subject: C=US, ST=CA, O=Open vSwitch, OU=Open vSwitch certifier, CN=tmp id:8c1be8e8-3457-4536-9e1f-84f6cfcf90b5
        Subject Public Key Info:
            Public Key Algorithm: rsaEncryption
                RSA Public-Key: (2048 bit)
                Modulus:
                    00:d5:13:7d:bc:b6:bb:52:8c:d5:f0:27:df:ef:67:
                    dd:af:3c:a4:35:cb:e7:94:4d:e2:6c:fc:58:5c:6a:
                    61:b9:82:0a:d8:99:ce:27:53:44:16:de:3d:31:c4:
                    79:12:54:d1:b2:21:3c:25:19:5b:70:50:f2:be:b4:
                    4d:e3:e8:e9:66:c1:47:8f:55:65:ef:50:a5:e3:19:
                    ff:2a:68:4b:15:27:05:57:f8:6e:21:6c:85:37:bf:
                    f3:33:63:ed:b8:ab:c6:68:0a:02:f2:87:ca:79:f8:
                    e1:48:2d:e2:01:d9:ff:84:21:ee:fc:85:2c:57:ab:
                    0a:9e:fb:06:a7:c4:10:9e:97:61:31:aa:7f:9e:b7:
                    5e:0b:2a:7e:75:9b:0b:5d:39:48:ac:e6:c8:29:d4:
                    2b:ae:99:cd:66:c7:c5:40:86:d2:eb:5a:e8:f0:e7:
                    61:04:f0:7f:5e:83:ae:0d:a2:58:d4:40:71:67:e1:
                    d6:ce:d9:ce:6c:25:cc:f0:f7:5b:b2:c0:5a:1e:26:
                    00:02:e6:21:19:15:5a:82:e1:77:e3:21:e8:24:3b:
                    37:c8:07:3a:fa:b4:2b:f4:e8:8e:34:38:8a:d0:e9:
                    85:b7:16:89:9f:2e:b6:97:0f:6b:3f:d3:4d:8a:5d:
                    c0:d5:94:71:33:2a:18:88:cd:fa:24:e4:72:d6:1c:
                    07:99
                Exponent: 65537 (0x10001)
    Signature Algorithm: sha512WithRSAEncryption
         b7:83:06:3b:aa:e5:6a:58:b6:83:c3:d5:6b:3d:50:f6:6f:df:
         c3:b1:f2:26:80:fb:d0:1a:2c:74:a9:af:19:50:45:fa:66:10:
         f9:96:6a:21:33:f9:f3:e2:77:2f:fe:fe:e5:f0:3b:af:0d:93:
         a6:d8:0e:43:9d:7f:bd:92:7b:7e:8d:13:9c:b1:da:25:15:c7:
         dd:1a:50:7a:4e:b1:98:40:6f:ba:4d:15:b7:e1:00:44:99:95:
         77:13:1a:01:7a:d8:4a:41:ef:c5:e3:c9:f2:ce:e7:bc:aa:d0:
         57:d6:3c:88:3c:43:b2:22:5a:48:50:9e:45:fe:cc:1b:16:c6:
         1f:ec:d4:59:bb:26:37:5a:53:3d:8f:eb:3d:b0:ed:10:6d:63:
         09:15:ef:75:29:74:cb:71:3f:af:7b:68:ad:f3:e3:75:61:6d:
         44:17:bd:28:ea:2f:97:9c:f7:d5:2d:df:e5:46:be:52:0e:f1:
         66:b2:b9:f3:cb:7c:a7:09:4c:3d:d9:da:c8:af:3d:58:ed:75:
         b9:bf:ff:41:13:fd:28:85:db:97:de:07:d3:99:a1:b4:6a:85:
         12:91:30:00:0a:0c:f0:7f:df:0a:88:b5:3a:dd:1c:9d:7f:a4:
         73:3d:6a:0a:ec:61:13:27:f7:6e:3b:2a:76:4d:ca:2e:ed:54:
         05:8a:15:d1
-----BEGIN CERTIFICATE-----
MIIDhzCCAm8CAQIwDQYJKoZIhvcNAQENBQAwgYkxCzAJBgNVBAYTAlVTMQswCQYD
VQQIDAJDQTEVMBMGA1UECgwMT3BlbiB2U3dpdGNoMRUwEwYDVQQLDAxjb250cm9s
bGVyY2ExPzA9BgNVBAMMNk9WUyBjb250cm9sbGVyY2EgQ0EgQ2VydGlmaWNhdGUg
KDIwMjIgbGlwIDE1IDEyOjMzOjQ0KTAeFw0yMjA3MTUxMDMzNDRaFw0zMjA3MTIx
MDMzNDRaMIGIMQswCQYDVQQGEwJVUzELMAkGA1UECAwCQ0ExFTATBgNVBAoMDE9w
ZW4gdlN3aXRjaDEfMB0GA1UECwwWT3BlbiB2U3dpdGNoIGNlcnRpZmllcjE0MDIG
A1UEAwwrdG1wIGlkOjhjMWJlOGU4LTM0NTctNDUzNi05ZTFmLTg0ZjZjZmNmOTBi
NTCCASIwDQYJKoZIhvcNAQEBBQADggEPADCCAQoCggEBANUTfby2u1KM1fAn3+9n
3a88pDXL55RN4mz8WFxqYbmCCtiZzidTRBbePTHEeRJU0bIhPCUZW3BQ8r60TePo
6WbBR49VZe9QpeMZ/ypoSxUnBVf4biFshTe/8zNj7birxmgKAvKHynn44Ugt4gHZ
/4Qh7vyFLFerCp77BqfEEJ6XYTGqf563XgsqfnWbC105SKzmyCnUK66ZzWbHxUCG
0uta6PDnYQTwf16Drg2iWNRAcWfh1s7ZzmwlzPD3W7LAWh4mAALmIRkVWoLhd+Mh
6CQ7N8gHOvq0K/TojjQ4itDphbcWiZ8utpcPaz/TTYpdwNWUcTMqGIjN+iTkctYc
B5kCAwEAATANBgkqhkiG9w0BAQ0FAAOCAQEAt4MGO6rlali2g8PVaz1Q9m/fw7Hy
JoD70BosdKmvGVBF+mYQ+ZZqITP58+J3L/7+5fA7rw2TptgOQ51/vZJ7fo0TnLHa
JRXH3RpQek6xmEBvuk0Vt+EARJmVdxMaAXrYSkHvxePJ8s7nvKrQV9Y8iDxDsiJa
SFCeRf7MGxbGH+zUWbsmN1pTPY/rPbDtEG1jCRXvdSl0y3E/r3torfPjdWFtRBe9
KOovl5z31S3f5Ua+Ug7xZrK588t8pwlMPdnayK89WO11ub//QRP9KIXbl94H05mh
tGqFEpEwAAoM8H/fCoi1Ot0cnX+kcz1qCuxhEyf3bjsqdk3KLu1UBYoV0Q==
-----END CERTIFICATE-----
