Certificate Request:
    Data:
        Version: 1 (0x0)
        Subject: C = US, ST = CA, L = Palo Alto, O = Open vSwitch, OU = Open vSwitch certifier, CN = tmp id:8c1be8e8-3457-4536-9e1f-84f6cfcf90b5
        Subject Public Key Info:
            Public Key Algorithm: rsaEncryption
                RSA Public-Key: (2048 bit)
                Modulus:
                    00:d5:13:7d:bc:b6:bb:52:8c:d5:f0:27:df:ef:67:
                    dd:af:3c:a4:35:cb:e7:94:4d:e2:6c:fc:58:5c:6a:
                    61:b9:82:0a:d8:99:ce:27:53:44:16:de:3d:31:c4:
                    79:12:54:d1:b2:21:3c:25:19:5b:70:50:f2:be:b4:
                    4d:e3:e8:e9:66:c1:47:8f:55:65:ef:50:a5:e3:19:
                    ff:2a:68:4b:15:27:05:57:f8:6e:21:6c:85:37:bf:
                    f3:33:63:ed:b8:ab:c6:68:0a:02:f2:87:ca:79:f8:
                    e1:48:2d:e2:01:d9:ff:84:21:ee:fc:85:2c:57:ab:
                    0a:9e:fb:06:a7:c4:10:9e:97:61:31:aa:7f:9e:b7:
                    5e:0b:2a:7e:75:9b:0b:5d:39:48:ac:e6:c8:29:d4:
                    2b:ae:99:cd:66:c7:c5:40:86:d2:eb:5a:e8:f0:e7:
                    61:04:f0:7f:5e:83:ae:0d:a2:58:d4:40:71:67:e1:
                    d6:ce:d9:ce:6c:25:cc:f0:f7:5b:b2:c0:5a:1e:26:
                    00:02:e6:21:19:15:5a:82:e1:77:e3:21:e8:24:3b:
                    37:c8:07:3a:fa:b4:2b:f4:e8:8e:34:38:8a:d0:e9:
                    85:b7:16:89:9f:2e:b6:97:0f:6b:3f:d3:4d:8a:5d:
                    c0:d5:94:71:33:2a:18:88:cd:fa:24:e4:72:d6:1c:
                    07:99
                Exponent: 65537 (0x10001)
        Attributes:
            a0:00
    Signature Algorithm: sha256WithRSAEncryption
         9e:4d:17:20:64:59:86:0c:f1:c1:de:1b:41:c7:3d:da:e4:a6:
         43:be:54:ee:e8:dd:1c:34:7d:59:a5:9c:4e:b0:e2:6e:a0:cd:
         64:d6:be:4f:3b:83:57:ed:84:4b:11:ee:2e:ab:d1:79:60:9e:
         b1:dd:0c:3d:c5:ac:14:2c:04:fb:a9:da:61:4c:5b:8c:1f:b3:
         9c:af:4b:27:a5:9a:87:65:07:51:f0:ea:f3:f5:4c:1f:d6:08:
         e9:70:02:a7:53:92:d2:4d:63:1c:dd:63:a4:40:27:45:d3:b3:
         ae:77:6b:7e:be:19:61:d3:2e:24:69:04:71:f6:2f:88:07:e0:
         06:02:dc:27:52:4c:7f:3c:0a:50:84:fb:5a:7f:64:f2:3e:13:
         6a:4f:c5:19:fa:59:4d:07:1a:b7:b2:ac:9f:a4:fd:bc:74:7a:
         63:89:27:81:34:90:5e:8f:05:ff:c9:d0:38:2c:96:69:52:c0:
         e5:e3:34:f3:cc:5e:2a:82:71:6a:b5:4b:9b:f6:7a:ce:b1:c4:
         97:dc:2b:51:64:c0:17:8e:a0:44:8c:c8:74:91:1f:38:46:69:
         04:19:8f:76:49:14:d5:99:19:2b:d2:7c:6d:1f:fd:bd:67:16:
         a8:88:d2:9e:53:57:20:15:68:c1:ca:87:37:88:35:86:a1:43:
         6e:36:63:e7
-----BEGIN CERTIFICATE REQUEST-----
MIIC4jCCAcoCAQAwgZwxCzAJBgNVBAYTAlVTMQswCQYDVQQIDAJDQTESMBAGA1UE
BwwJUGFsbyBBbHRvMRUwEwYDVQQKDAxPcGVuIHZTd2l0Y2gxHzAdBgNVBAsMFk9w
ZW4gdlN3aXRjaCBjZXJ0aWZpZXIxNDAyBgNVBAMMK3RtcCBpZDo4YzFiZThlOC0z
NDU3LTQ1MzYtOWUxZi04NGY2Y2ZjZjkwYjUwggEiMA0GCSqGSIb3DQEBAQUAA4IB
DwAwggEKAoIBAQDVE328trtSjNXwJ9/vZ92vPKQ1y+eUTeJs/FhcamG5ggrYmc4n
U0QW3j0xxHkSVNGyITwlGVtwUPK+tE3j6OlmwUePVWXvUKXjGf8qaEsVJwVX+G4h
bIU3v/MzY+24q8ZoCgLyh8p5+OFILeIB2f+EIe78hSxXqwqe+wanxBCel2Exqn+e
t14LKn51mwtdOUis5sgp1Cuumc1mx8VAhtLrWujw52EE8H9eg64NoljUQHFn4dbO
2c5sJczw91uywFoeJgAC5iEZFVqC4XfjIegkOzfIBzr6tCv06I40OIrQ6YW3Fomf
LraXD2s/002KXcDVlHEzKhiIzfok5HLWHAeZAgMBAAGgADANBgkqhkiG9w0BAQsF
AAOCAQEAnk0XIGRZhgzxwd4bQcc92uSmQ75U7ujdHDR9WaWcTrDibqDNZNa+TzuD
V+2ESxHuLqvReWCesd0MPcWsFCwE+6naYUxbjB+znK9LJ6Wah2UHUfDq8/VMH9YI
6XACp1OS0k1jHN1jpEAnRdOzrndrfr4ZYdMuJGkEcfYviAfgBgLcJ1JMfzwKUIT7
Wn9k8j4Tak/FGfpZTQcat7Ksn6T9vHR6Y4kngTSQXo8F/8nQOCyWaVLA5eM088xe
KoJxarVLm/Z6zrHEl9wrUWTAF46gRIzIdJEfOEZpBBmPdkkU1ZkZK9J8bR/9vWcW
qIjSnlNXIBVowcqHN4g1hqFDbjZj5w==
-----END CERTIFICATE REQUEST-----
